; Function Attrs: nounwind uwtable
define hidden zeroext i1 @_mi_os_purge_ex(ptr noundef %p, i64 noundef %size, i1 noundef zeroext %allow_reset, ptr noundef %stats) local_unnamed_addr #1 {
entry:
  %needs_recommit = alloca i8, align 1
  %call = tail call i64 @mi_option_get(i32 noundef 15) #7
  %cmp = icmp slt i64 %call, 0
  br i1 %cmp, label %return, label %if.end

if.end:                                           ; preds = %entry
  %purge_calls = getelementptr inbounds nuw i8, ptr %stats, i64 544
  tail call void @_mi_stat_counter_increase(ptr noundef nonnull %purge_calls, i64 noundef 1) #7
  %purged = getelementptr inbounds nuw i8, ptr %stats, i64 160
  tail call void @_mi_stat_increase(ptr noundef nonnull %purged, i64 noundef %size) #7
  %call1 = tail call zeroext i1 @mi_option_is_enabled(i32 noundef 5) #7
  br i1 %call1, label %land.lhs.true, label %if.else

land.lhs.true:                                    ; preds = %if.end
  %call2 = tail call zeroext i1 @_mi_preloading() #7
  br i1 %call2, label %if.else, label %if.then3

if.then3:                                         ; preds = %land.lhs.true
  store i8 1, ptr %needs_recommit, align 1
  tail call void @_mi_stat_decrease(ptr noundef nonnull getelementptr inbounds nuw (i8, ptr @_mi_stats_main, i64 96), i64 noundef %size) #7
  %cmp1.i.i.i = icmp eq i64 %size, 0
  %cmp2.i.i.i = icmp eq ptr %p, null
  %or.cond.i.i.i = or i1 %cmp2.i.i.i, %cmp1.i.i.i
  br i1 %or.cond.i.i.i, label %mi_os_decommit_ex.exit, label %if.end4.i.i.i

if.end4.i.i.i:                                    ; preds = %if.then3
  %0 = load i64, ptr @mi_os_mem_config, align 8
  %1 = ptrtoint ptr %p to i64
  %2 = tail call range(i64 0, 65) i64 @llvm.ctpop.i64(i64 %0)
  %cmp.i.i.i.i.i = icmp samesign ult i64 %2, 2
  %sub.i.i.i.i.i = add i64 %1, -1
  %add.i.i.i.i.i = add i64 %sub.i.i.i.i.i, %0
  %add.ptr42.i.i.i = getelementptr inbounds i8, ptr %p, i64 %size
  %3 = ptrtoint ptr %add.ptr42.i.i.i to i64
  br i1 %cmp.i.i.i.i.i, label %if.then.i.i24.i.i.i, label %if.else.i.i21.i.i.i

if.then.i.i24.i.i.i:                              ; preds = %if.end4.i.i.i
  %not.i.i.i.i.i = sub i64 0, %0
  %and1.i.i.i.i.i = and i64 %add.i.i.i.i.i, %not.i.i.i.i.i
  %and1.i.i26.i.i.i = and i64 %not.i.i.i.i.i, %3
  br label %cond.end16.i.i.i

if.else.i.i21.i.i.i:                              ; preds = %if.end4.i.i.i
  %4 = urem i64 %add.i.i.i.i.i, %0
  %mul.i.i.i.i.i = sub nuw i64 %add.i.i.i.i.i, %4
  %5 = urem i64 %3, %0
  %mul.i.i22.i.i.i = sub nuw i64 %3, %5
  br label %cond.end16.i.i.i

cond.end16.i.i.i:                                 ; preds = %if.else.i.i21.i.i.i, %if.then.i.i24.i.i.i
  %cond39.in.i.i.i = phi i64 [ %and1.i.i.i.i.i, %if.then.i.i24.i.i.i ], [ %mul.i.i.i.i.i, %if.else.i.i21.i.i.i ]
  %cond17.in.i.i.i = phi i64 [ %and1.i.i26.i.i.i, %if.then.i.i24.i.i.i ], [ %mul.i.i22.i.i.i, %if.else.i.i21.i.i.i ]
  %sub.ptr.sub.i.i.i = sub i64 %cond17.in.i.i.i, %cond39.in.i.i.i
  %cmp18.i.i.i = icmp slt i64 %sub.ptr.sub.i.i.i, 1
  br i1 %cmp18.i.i.i, label %mi_os_decommit_ex.exit, label %if.end.i

if.end.i:                                         ; preds = %cond.end16.i.i.i
  %cond39.i.i.i = inttoptr i64 %cond39.in.i.i.i to ptr
  store i8 1, ptr %needs_recommit, align 1
  %call1.i = call i32 @_mi_prim_decommit(ptr noundef %cond39.i.i.i, i64 noundef %sub.ptr.sub.i.i.i, ptr noundef nonnull %needs_recommit) #7
  %cmp2.not.i = icmp eq i32 %call1.i, 0
  br i1 %cmp2.not.i, label %mi_os_decommit_ex.exit, label %if.then3.i

if.then3.i:                                       ; preds = %if.end.i
  call void (ptr, ...) @_mi_warning_message(ptr noundef nonnull @.str.9, i32 noundef %call1.i, i32 noundef %call1.i, ptr noundef %cond39.i.i.i, i64 noundef %sub.ptr.sub.i.i.i) #7
  br label %mi_os_decommit_ex.exit

mi_os_decommit_ex.exit:                           ; preds = %if.then3, %cond.end16.i.i.i, %if.end.i, %if.then3.i
  %6 = load i8, ptr %needs_recommit, align 1
  %tobool = trunc i8 %6 to i1
  br label %return

if.else:                                          ; preds = %land.lhs.true, %if.end
  br i1 %allow_reset, label %if.then6, label %return

if.then6:                                         ; preds = %if.else
  %cmp1.i.i.i7 = icmp eq i64 %size, 0
  %cmp2.i.i.i8 = icmp eq ptr %p, null
  %or.cond.i.i.i9 = or i1 %cmp2.i.i.i8, %cmp1.i.i.i7
  br i1 %or.cond.i.i.i9, label %return, label %if.end4.i.i.i10

if.end4.i.i.i10:                                  ; preds = %if.then6
  %7 = load i64, ptr @mi_os_mem_config, align 8
  %8 = ptrtoint ptr %p to i64
  %9 = tail call range(i64 0, 65) i64 @llvm.ctpop.i64(i64 %7)
  %cmp.i.i.i.i.i11 = icmp samesign ult i64 %9, 2
  %sub.i.i.i.i.i12 = add i64 %8, -1
  %add.i.i.i.i.i13 = add i64 %sub.i.i.i.i.i12, %7
  %add.ptr42.i.i.i14 = getelementptr inbounds i8, ptr %p, i64 %size
  %10 = ptrtoint ptr %add.ptr42.i.i.i14 to i64
  br i1 %cmp.i.i.i.i.i11, label %if.then.i.i24.i.i.i29, label %if.else.i.i21.i.i.i15

if.then.i.i24.i.i.i29:                            ; preds = %if.end4.i.i.i10
  %not.i.i.i.i.i30 = sub i64 0, %7
  %and1.i.i.i.i.i31 = and i64 %add.i.i.i.i.i13, %not.i.i.i.i.i30
  %and1.i.i26.i.i.i32 = and i64 %not.i.i.i.i.i30, %10
  br label %cond.end16.i.i.i18

if.else.i.i21.i.i.i15:                            ; preds = %if.end4.i.i.i10
  %11 = urem i64 %add.i.i.i.i.i13, %7
  %mul.i.i.i.i.i16 = sub nuw i64 %add.i.i.i.i.i13, %11
  %12 = urem i64 %10, %7
  %mul.i.i22.i.i.i17 = sub nuw i64 %10, %12
  br label %cond.end16.i.i.i18

cond.end16.i.i.i18:                               ; preds = %if.else.i.i21.i.i.i15, %if.then.i.i24.i.i.i29
  %cond39.in.i.i.i19 = phi i64 [ %and1.i.i.i.i.i31, %if.then.i.i24.i.i.i29 ], [ %mul.i.i.i.i.i16, %if.else.i.i21.i.i.i15 ]
  %cond17.in.i.i.i20 = phi i64 [ %and1.i.i26.i.i.i32, %if.then.i.i24.i.i.i29 ], [ %mul.i.i22.i.i.i17, %if.else.i.i21.i.i.i15 ]
  %sub.ptr.sub.i.i.i21 = sub i64 %cond17.in.i.i.i20, %cond39.in.i.i.i19
  %cmp18.i.i.i22 = icmp slt i64 %sub.ptr.sub.i.i.i21, 1
  br i1 %cmp18.i.i.i22, label %return, label %if.end.i23

if.end.i23:                                       ; preds = %cond.end16.i.i.i18
  %cond39.i.i.i24 = inttoptr i64 %cond39.in.i.i.i19 to ptr
  %reset.i = getelementptr inbounds nuw i8, ptr %stats, i64 128
  tail call void @_mi_stat_increase(ptr noundef nonnull %reset.i, i64 noundef %sub.ptr.sub.i.i.i21) #7
  %reset_calls.i = getelementptr inbounds nuw i8, ptr %stats, i64 528
  tail call void @_mi_stat_counter_increase(ptr noundef nonnull %reset_calls.i, i64 noundef 1) #7
  %call1.i25 = tail call i32 @_mi_prim_reset(ptr noundef %cond39.i.i.i24, i64 noundef %sub.ptr.sub.i.i.i21) #7
  %cmp2.not.i26 = icmp eq i32 %call1.i25, 0
  br i1 %cmp2.not.i26, label %return, label %if.then3.i27

if.then3.i27:                                     ; preds = %if.end.i23
  tail call void (ptr, ...) @_mi_warning_message(ptr noundef nonnull @.str.1, i32 noundef %call1.i25, i32 noundef %call1.i25, ptr noundef %cond39.i.i.i24, i64 noundef %sub.ptr.sub.i.i.i21) #7
  br label %return

return:                                           ; preds = %if.then3.i27, %if.end.i23, %cond.end16.i.i.i18, %if.then6, %if.else, %entry, %mi_os_decommit_ex.exit
  %retval.0 = phi i1 [ %tobool, %mi_os_decommit_ex.exit ], [ false, %entry ], [ false, %if.else ], [ false, %if.then6 ], [ false, %cond.end16.i.i.i18 ], [ false, %if.end.i23 ], [ false, %if.then3.i27 ]
  ret i1 %retval.0
}